target datalayout = "e-m:e-p270:32:32-p271:32:32-p272:64:64-i64:64-i128:128-f80:128-n8:16:32:64-S128"
target triple = "x86_64-pc-linux-gnu"

%"struct.memarena::arena_chunk" = type { ptr, i64, i64 }
%class.memarena = type { %"struct.memarena::arena_chunk", ptr, i32, i64, i64 }

; Function Attrs: mustprogress nounwind uwtable
define noundef i64 @_ZNK8memarena17total_size_in_useEv(ptr noundef nonnull align 8 dereferenceable(56) %0) #2 align 2 {
  %2 = alloca ptr, align 8
  store ptr %0, ptr %2, align 8, !tbaa !4
  %3 = load ptr, ptr %2, align 8
  %4 = getelementptr inbounds nuw %class.memarena, ptr %3, i32 0, i32 3
  %5 = load i64, ptr %4, align 8, !tbaa !19
  %6 = getelementptr inbounds nuw %class.memarena, ptr %3, i32 0, i32 0
  %7 = getelementptr inbounds nuw %"struct.memarena::arena_chunk", ptr %6, i32 0, i32 1
  %8 = load i64, ptr %7, align 8, !tbaa !31
  %9 = add i64 %5, %8
  ret i64 %9
}

; Function Attrs: mustprogress uwtable
define noundef i64 @_ZNK8memarena17total_memory_sizeEv(ptr noundef nonnull align 8 dereferenceable(56) %0) #0 align 2 {
  %2 = alloca ptr, align 8
  store ptr %0, ptr %2, align 8, !tbaa !4
  %3 = load ptr, ptr %2, align 8
  %4 = call noundef i64 @_ZNK8memarena17total_size_in_useEv(ptr noundef nonnull align 8 dereferenceable(56) %3)
  %5 = add i64 56, %4
  %6 = getelementptr inbounds nuw %class.memarena, ptr %3, i32 0, i32 2
  %7 = load i32, ptr %6, align 8, !tbaa !21
  %8 = sext i32 %7 to i64
  %9 = mul i64 %8, 24
  %10 = add i64 %5, %9
  ret i64 %10
}